; Function Attrs: mustprogress nofree norecurse nosync nounwind willreturn memory(argmem: readwrite) uwtable
define ptr @_yr_compiler_pop_file(ptr nocapture noundef %0) local_unnamed_addr #0 {
  %2 = getelementptr inbounds i8, ptr %0, i64 688
  %3 = load i32, ptr %2, align 8
  %4 = icmp sgt i32 %3, 0
  br i1 %4, label %5, label %11

5:                                                ; preds = %1
  %6 = add nsw i32 %3, -1
  store i32 %6, ptr %2, align 8
  %7 = getelementptr inbounds i8, ptr %0, i64 560
  %8 = zext nneg i32 %6 to i64
  %9 = getelementptr inbounds [16 x ptr], ptr %7, i64 0, i64 %8
  %10 = load ptr, ptr %9, align 8
  br label %11

11:                                               ; preds = %5, %1
  %.0 = phi ptr [ %10, %5 ], [ null, %1 ]
  ret ptr %.0
}